(dp1
S'note'
p2
S''
sS'birthday'
p3
S'2'
sS'phonenumber'
p4
I2
sS'name'
p5
S'chenye'
p6
sS'email'
p7
S'2'
s.(dp1
S'note'
p2
S'1'
sS'birthday'
p3
S'1'
sS'phonenumber'
p4
I1
sS'name'
p5
S'xuqiqi'
p6
sS'email'
p7
S'1'
s.(dp1
S'note'
p2
S''
sS'birthday'
p3
S'2'
sS'phonenumber'
p4
I2
sS'name'
p5
S'chenye'
p6
sS'email'
p7
S'2'
s.(dp1
S'note'
p2
S'1'
sS'birthday'
p3
S'1'
sS'phonenumber'
p4
I1
sS'name'
p5
S'xuqiqi'
p6
sS'email'
p7
S'1'
s.